target datalayout = "e-m:e-p270:32:32-p271:32:32-p272:64:64-i64:64-i128:128-f80:128-n8:16:32:64-S128"
target triple = "x86_64-pc-linux-gnu"

%"class.clang::SourceLocation" = type { i32 }
%"class.clang::Decl" = type <{ ptr, %"class.llvm::PointerIntPair", %"class.llvm::PointerUnion", %"class.clang::SourceLocation", i32, i8, [7 x i8] }>
%"class.llvm::PointerIntPair" = type { %"struct.llvm::detail::PunnedPointer" }
%"struct.llvm::detail::PunnedPointer" = type { [8 x i8] }
%"class.llvm::PointerUnion" = type { %"class.llvm::pointer_union_detail::PointerUnionMembers" }
%"class.llvm::pointer_union_detail::PointerUnionMembers" = type { %"class.llvm::pointer_union_detail::PointerUnionMembers.6" }
%"class.llvm::pointer_union_detail::PointerUnionMembers.6" = type { %"class.llvm::pointer_union_detail::PointerUnionMembers.7" }
%"class.llvm::pointer_union_detail::PointerUnionMembers.7" = type { %"class.llvm::PointerIntPair.8" }
%"class.llvm::PointerIntPair.8" = type { %"struct.llvm::detail::PunnedPointer.9" }
%"struct.llvm::detail::PunnedPointer.9" = type { [8 x i8] }
%"struct.__gnu_cxx::__ops::_Val_comp_iter" = type { i8 }

; Function Attrs: mustprogress nounwind uwtable
define linkonce_odr hidden noundef zeroext i1 @_ZN5clang17CXXDestructorDecl11classofKindENS_4Decl4KindE(i32 noundef %0) #0 comdat align 2 {
  %2 = alloca i32, align 4
  store i32 %0, ptr %2, align 4
  %3 = load i32, ptr %2, align 4
  %4 = icmp eq i32 %3, 33
  ret i1 %4
}

; Function Attrs: mustprogress nounwind uwtable
define linkonce_odr hidden noundef i32 @_ZNK5clang4Decl7getKindEv(ptr noundef nonnull align 8 dereferenceable(33) %0) #0 comdat align 2 {
  %2 = alloca ptr, align 8
  store ptr %0, ptr %2, align 8
  %3 = load ptr, ptr %2, align 8
  %4 = getelementptr inbounds nuw %"class.clang::Decl", ptr %3, i32 0, i32 4
  %5 = load i32, ptr %4, align 4
  %6 = and i32 %5, 127
  ret i32 %6
}

; Function Attrs: mustprogress nounwind uwtable
define linkonce_odr hidden noundef zeroext i1 @_ZN5clang17CXXDestructorDecl7classofEPKNS_4DeclE(ptr noundef %0) #0 comdat align 2 {
  %2 = alloca ptr, align 8
  store ptr %0, ptr %2, align 8
  %3 = load ptr, ptr %2, align 8
  %4 = call noundef i32 @_ZNK5clang4Decl7getKindEv(ptr noundef nonnull align 8 dereferenceable(33) %3)
  %5 = call noundef zeroext i1 @_ZN5clang17CXXDestructorDecl11classofKindENS_4Decl4KindE(i32 noundef %4)
  ret i1 %5
}

; Function Attrs: mustprogress nounwind uwtable
define linkonce_odr hidden noundef zeroext i1 @_ZN4llvm8isa_implIN5clang17CXXDestructorDeclENS1_13CXXMethodDeclEvE4doitERKS3_(ptr noundef nonnull align 8 dereferenceable(168) %0) #0 comdat align 2 {
  %2 = alloca ptr, align 8
  store ptr %0, ptr %2, align 8
  %3 = load ptr, ptr %2, align 8
  %4 = call noundef zeroext i1 @_ZN5clang17CXXDestructorDecl7classofEPKNS_4DeclE(ptr noundef %3)
  ret i1 %4
}

; Function Attrs: mustprogress nounwind uwtable
define linkonce_odr hidden noundef zeroext i1 @_ZN4llvm11isa_impl_clIN5clang17CXXDestructorDeclEPKNS1_13CXXMethodDeclEE4doitES5_(ptr noundef %0) #0 comdat align 2 {
  %2 = alloca ptr, align 8
  store ptr %0, ptr %2, align 8
  %3 = load ptr, ptr %2, align 8
  %4 = call noundef zeroext i1 @_ZN4llvm8isa_implIN5clang17CXXDestructorDeclENS1_13CXXMethodDeclEvE4doitERKS3_(ptr noundef nonnull align 8 dereferenceable(168) %3)
  ret i1 %4
}

; Function Attrs: mustprogress nounwind uwtable
define linkonce_odr hidden noundef zeroext i1 @_ZN4llvm13isa_impl_wrapIN5clang17CXXDestructorDeclEPKNS1_13CXXMethodDeclES5_E4doitERKS5_(ptr noundef nonnull align 8 dereferenceable(8) %0) #0 comdat align 2 {
  %2 = alloca ptr, align 8
  store ptr %0, ptr %2, align 8
  %3 = load ptr, ptr %2, align 8
  %4 = load ptr, ptr %3, align 8
  %5 = call noundef zeroext i1 @_ZN4llvm11isa_impl_clIN5clang17CXXDestructorDeclEPKNS1_13CXXMethodDeclEE4doitES5_(ptr noundef %4)
  ret i1 %5
}

; Function Attrs: mustprogress nounwind uwtable
define linkonce_odr hidden noundef zeroext i1 @_ZN4llvm13isa_impl_wrapIN5clang17CXXDestructorDeclEKPKNS1_13CXXMethodDeclES5_E4doitERS6_(ptr noundef nonnull align 8 dereferenceable(8) %0) #0 comdat align 2 {
  %2 = alloca ptr, align 8
  %3 = alloca ptr, align 8
  store ptr %0, ptr %2, align 8
  %4 = load ptr, ptr %2, align 8
  %5 = call noundef ptr @_ZN4llvm13simplify_typeIKPKN5clang13CXXMethodDeclEE18getSimplifiedValueERS5_(ptr noundef nonnull align 8 dereferenceable(8) %4)
  store ptr %5, ptr %3, align 8
  %6 = call noundef zeroext i1 @_ZN4llvm13isa_impl_wrapIN5clang17CXXDestructorDeclEPKNS1_13CXXMethodDeclES5_E4doitERKS5_(ptr noundef nonnull align 8 dereferenceable(8) %3)
  ret i1 %6
}

; Function Attrs: mustprogress nounwind uwtable
define linkonce_odr hidden noundef nonnull align 8 dereferenceable(8) ptr @_ZN4llvm13simplify_typeIPKN5clang13CXXMethodDeclEE18getSimplifiedValueERS4_(ptr noundef nonnull align 8 dereferenceable(8) %0) #0 comdat align 2 {
  %2 = alloca ptr, align 8
  store ptr %0, ptr %2, align 8
  %3 = load ptr, ptr %2, align 8
  ret ptr %3
}

; Function Attrs: mustprogress nounwind uwtable
define linkonce_odr hidden noundef zeroext i1 @_ZN4llvm14CastIsPossibleIN5clang17CXXDestructorDeclEPKNS1_13CXXMethodDeclEvE10isPossibleERKS5_(ptr noundef nonnull align 8 dereferenceable(8) %0) #0 comdat align 2 {
  %2 = alloca ptr, align 8
  store ptr %0, ptr %2, align 8
  %3 = load ptr, ptr %2, align 8
  %4 = call noundef zeroext i1 @_ZN4llvm13isa_impl_wrapIN5clang17CXXDestructorDeclEKPKNS1_13CXXMethodDeclES5_E4doitERS6_(ptr noundef nonnull align 8 dereferenceable(8) %3)
  ret i1 %4
}

; Function Attrs: mustprogress nounwind uwtable
define linkonce_odr hidden noundef ptr @_ZN4llvm13simplify_typeIKPKN5clang13CXXMethodDeclEE18getSimplifiedValueERS5_(ptr noundef nonnull align 8 dereferenceable(8) %0) #0 comdat align 2 {
  %2 = alloca ptr, align 8
  store ptr %0, ptr %2, align 8
  %3 = load ptr, ptr %2, align 8
  %4 = call noundef nonnull align 8 dereferenceable(8) ptr @_ZN4llvm13simplify_typeIPKN5clang13CXXMethodDeclEE18getSimplifiedValueERS4_(ptr noundef nonnull align 8 dereferenceable(8) %3)
  %5 = load ptr, ptr %4, align 8
  ret ptr %5
}

; Function Attrs: mustprogress nounwind uwtable
define linkonce_odr hidden noundef zeroext i1 @_ZN4llvm8CastInfoIN5clang17CXXDestructorDeclEKPKNS1_13CXXMethodDeclEvE10isPossibleERS6_(ptr noundef nonnull align 8 dereferenceable(8) %0) #0 comdat align 2 {
  %2 = alloca ptr, align 8
  %3 = alloca ptr, align 8
  store ptr %0, ptr %2, align 8
  %4 = load ptr, ptr %2, align 8
  %5 = call noundef ptr @_ZN4llvm13simplify_typeIKPKN5clang13CXXMethodDeclEE18getSimplifiedValueERS5_(ptr noundef nonnull align 8 dereferenceable(8) %4)
  store ptr %5, ptr %3, align 8
  %6 = call noundef zeroext i1 @_ZN4llvm14CastIsPossibleIN5clang17CXXDestructorDeclEPKNS1_13CXXMethodDeclEvE10isPossibleERKS5_(ptr noundef nonnull align 8 dereferenceable(8) %3)
  ret i1 %6
}

; Function Attrs: mustprogress nounwind uwtable
define linkonce_odr hidden noundef zeroext i1 @_ZN4llvm3isaIN5clang17CXXDestructorDeclEPKNS1_13CXXMethodDeclEEEbRKT0_(ptr noundef nonnull align 8 dereferenceable(8) %0) #0 comdat {
  %2 = alloca ptr, align 8
  store ptr %0, ptr %2, align 8
  %3 = load ptr, ptr %2, align 8
  %4 = call noundef zeroext i1 @_ZN4llvm8CastInfoIN5clang17CXXDestructorDeclEKPKNS1_13CXXMethodDeclEvE10isPossibleERS6_(ptr noundef nonnull align 8 dereferenceable(8) %3)
  ret i1 %4
}

; Function Attrs: mustprogress nounwind uwtable
define internal noundef zeroext i1 @"_ZZN12_GLOBAL__N_120ItaniumVTableBuilder10AddMethodsEN5clang13BaseSubobjectENS1_9CharUnitsEPKNS1_13CXXRecordDeclES3_RN4llvm14SmallSetVectorIS6_Lj8EEEENK3$_0clEPKNS1_13CXXMethodDeclESE_"(ptr noundef nonnull align 1 dereferenceable(1) %0, ptr noundef %1, ptr noundef %2) #0 align 2 {
  %4 = alloca i1, align 1
  %5 = alloca ptr, align 8
  %6 = alloca ptr, align 8
  %7 = alloca ptr, align 8
  store ptr %0, ptr %5, align 8
  store ptr %1, ptr %6, align 8
  store ptr %2, ptr %7, align 8
  %8 = load ptr, ptr %6, align 8
  %9 = load ptr, ptr %7, align 8
  %10 = icmp eq ptr %8, %9
  br i1 %10, label %11, label %12

11:                                               ; preds = %3
  store i1 false, ptr %4, align 1
  br label %43

12:                                               ; preds = %3
  %13 = load ptr, ptr %6, align 8
  %14 = call noundef zeroext i1 @_ZNK5clang13CXXMethodDecl24isCopyAssignmentOperatorEv(ptr noundef nonnull align 8 dereferenceable(168) %13)
  %15 = zext i1 %14 to i32
  %16 = load ptr, ptr %7, align 8
  %17 = call noundef zeroext i1 @_ZNK5clang13CXXMethodDecl24isCopyAssignmentOperatorEv(ptr noundef nonnull align 8 dereferenceable(168) %16)
  %18 = zext i1 %17 to i32
  %19 = icmp ne i32 %15, %18
  br i1 %19, label %20, label %23

20:                                               ; preds = %12
  %21 = load ptr, ptr %6, align 8
  %22 = call noundef zeroext i1 @_ZNK5clang13CXXMethodDecl24isCopyAssignmentOperatorEv(ptr noundef nonnull align 8 dereferenceable(168) %21)
  store i1 %22, ptr %4, align 1
  br label %43

23:                                               ; preds = %12
  %24 = load ptr, ptr %6, align 8
  %25 = call noundef zeroext i1 @_ZNK5clang13CXXMethodDecl24isMoveAssignmentOperatorEv(ptr noundef nonnull align 8 dereferenceable(168) %24)
  %26 = zext i1 %25 to i32
  %27 = load ptr, ptr %7, align 8
  %28 = call noundef zeroext i1 @_ZNK5clang13CXXMethodDecl24isMoveAssignmentOperatorEv(ptr noundef nonnull align 8 dereferenceable(168) %27)
  %29 = zext i1 %28 to i32
  %30 = icmp ne i32 %26, %29
  br i1 %30, label %31, label %34

31:                                               ; preds = %23
  %32 = load ptr, ptr %6, align 8
  %33 = call noundef zeroext i1 @_ZNK5clang13CXXMethodDecl24isMoveAssignmentOperatorEv(ptr noundef nonnull align 8 dereferenceable(168) %32)
  store i1 %33, ptr %4, align 1
  br label %43

34:                                               ; preds = %23
  %35 = call noundef zeroext i1 @_ZN4llvm3isaIN5clang17CXXDestructorDeclEPKNS1_13CXXMethodDeclEEEbRKT0_(ptr noundef nonnull align 8 dereferenceable(8) %6)
  %36 = zext i1 %35 to i32
  %37 = call noundef zeroext i1 @_ZN4llvm3isaIN5clang17CXXDestructorDeclEPKNS1_13CXXMethodDeclEEEbRKT0_(ptr noundef nonnull align 8 dereferenceable(8) %7)
  %38 = zext i1 %37 to i32
  %39 = icmp ne i32 %36, %38
  br i1 %39, label %40, label %42

40:                                               ; preds = %34
  %41 = call noundef zeroext i1 @_ZN4llvm3isaIN5clang17CXXDestructorDeclEPKNS1_13CXXMethodDeclEEEbRKT0_(ptr noundef nonnull align 8 dereferenceable(8) %6)
  store i1 %41, ptr %4, align 1
  br label %43

42:                                               ; preds = %34
  store i1 false, ptr %4, align 1
  br label %43

43:                                               ; preds = %42, %40, %31, %20, %11
  %44 = load i1, ptr %4, align 1
  ret i1 %44
}

; Function Attrs: mustprogress nounwind uwtable
define linkonce_odr void @_ZSt9__advanceIPPKN5clang13CXXMethodDeclElEvRT_T0_St26random_access_iterator_tag(ptr noundef nonnull align 8 dereferenceable(8) %0, i64 noundef %1) #0 comdat {
  %3 = alloca ptr, align 8
  %4 = alloca i64, align 8
  store ptr %0, ptr %3, align 8
  store i64 %1, ptr %4, align 8
  %5 = load i64, ptr %4, align 8
  %6 = call i1 @llvm.is.constant.i64(i64 %5)
  br i1 %6, label %7, label %14

7:                                                ; preds = %2
  %8 = load i64, ptr %4, align 8
  %9 = icmp eq i64 %8, 1
  br i1 %9, label %10, label %14

10:                                               ; preds = %7
  %11 = load ptr, ptr %3, align 8
  %12 = load ptr, ptr %11, align 8
  %13 = getelementptr inbounds ptr, ptr %12, i32 1
  store ptr %13, ptr %11, align 8
  br label %30

14:                                               ; preds = %7, %2
  %15 = load i64, ptr %4, align 8
  %16 = call i1 @llvm.is.constant.i64(i64 %15)
  br i1 %16, label %17, label %24

17:                                               ; preds = %14
  %18 = load i64, ptr %4, align 8
  %19 = icmp eq i64 %18, -1
  br i1 %19, label %20, label %24

20:                                               ; preds = %17
  %21 = load ptr, ptr %3, align 8
  %22 = load ptr, ptr %21, align 8
  %23 = getelementptr inbounds ptr, ptr %22, i32 -1
  store ptr %23, ptr %21, align 8
  br label %29

24:                                               ; preds = %17, %14
  %25 = load i64, ptr %4, align 8
  %26 = load ptr, ptr %3, align 8
  %27 = load ptr, ptr %26, align 8
  %28 = getelementptr inbounds ptr, ptr %27, i64 %25
  store ptr %28, ptr %26, align 8
  br label %29

29:                                               ; preds = %24, %20
  br label %30

30:                                               ; preds = %29, %10
  ret void
}

; Function Attrs: mustprogress nounwind uwtable
define linkonce_odr noundef i64 @_ZSt10__distanceIPPKN5clang13CXXMethodDeclEENSt15iterator_traitsIT_E15difference_typeES6_S6_St26random_access_iterator_tag(ptr noundef %0, ptr noundef %1) #0 comdat {
  %3 = alloca ptr, align 8
  %4 = alloca ptr, align 8
  store ptr %0, ptr %3, align 8
  store ptr %1, ptr %4, align 8
  %5 = load ptr, ptr %4, align 8
  %6 = load ptr, ptr %3, align 8
  %7 = ptrtoint ptr %5 to i64
  %8 = ptrtoint ptr %6 to i64
  %9 = sub i64 %7, %8
  %10 = sdiv exact i64 %9, 8
  ret i64 %10
}

; Function Attrs: mustprogress nounwind uwtable
define linkonce_odr void @_ZSt19__iterator_categoryIPPKN5clang13CXXMethodDeclEENSt15iterator_traitsIT_E17iterator_categoryERKS6_(ptr noundef nonnull align 8 dereferenceable(8) %0) #0 comdat {
  %2 = alloca ptr, align 8
  store ptr %0, ptr %2, align 8
  ret void
}

; Function Attrs: mustprogress nounwind uwtable
define internal noundef zeroext i1 @"_ZN9__gnu_cxx5__ops14_Val_comp_iterIZN12_GLOBAL__N_120ItaniumVTableBuilder10AddMethodsEN5clang13BaseSubobjectENS4_9CharUnitsEPKNS4_13CXXRecordDeclES6_RN4llvm14SmallSetVectorIS9_Lj8EEEE3$_0EclIKPKNS4_13CXXMethodDeclEPSJ_EEbRT_T0_"(ptr noundef nonnull align 1 dereferenceable(1) %0, ptr noundef nonnull align 8 dereferenceable(8) %1, ptr noundef %2) #0 align 2 {
  %4 = alloca ptr, align 8
  %5 = alloca ptr, align 8
  %6 = alloca ptr, align 8
  store ptr %0, ptr %4, align 8
  store ptr %1, ptr %5, align 8
  store ptr %2, ptr %6, align 8
  %7 = load ptr, ptr %4, align 8
  %8 = load ptr, ptr %5, align 8
  %9 = load ptr, ptr %8, align 8
  %10 = load ptr, ptr %6, align 8
  %11 = load ptr, ptr %10, align 8
  %12 = call noundef zeroext i1 @"_ZZN12_GLOBAL__N_120ItaniumVTableBuilder10AddMethodsEN5clang13BaseSubobjectENS1_9CharUnitsEPKNS1_13CXXRecordDeclES3_RN4llvm14SmallSetVectorIS6_Lj8EEEENK3$_0clEPKNS1_13CXXMethodDeclESE_"(ptr noundef nonnull align 1 dereferenceable(1) %7, ptr noundef %9, ptr noundef %11)
  ret i1 %12
}

; Function Attrs: mustprogress nounwind uwtable
define linkonce_odr void @_ZSt7advanceIPPKN5clang13CXXMethodDeclElEvRT_T0_(ptr noundef nonnull align 8 dereferenceable(8) %0, i64 noundef %1) #0 comdat {
  %3 = alloca ptr, align 8
  %4 = alloca i64, align 8
  %5 = alloca i64, align 8
  store ptr %0, ptr %3, align 8
  store i64 %1, ptr %4, align 8
  %6 = load i64, ptr %4, align 8
  store i64 %6, ptr %5, align 8
  %7 = load ptr, ptr %3, align 8
  %8 = load i64, ptr %5, align 8
  %9 = load ptr, ptr %3, align 8
  call void @_ZSt19__iterator_categoryIPPKN5clang13CXXMethodDeclEENSt15iterator_traitsIT_E17iterator_categoryERKS6_(ptr noundef nonnull align 8 dereferenceable(8) %9)
  call void @_ZSt9__advanceIPPKN5clang13CXXMethodDeclElEvRT_T0_St26random_access_iterator_tag(ptr noundef nonnull align 8 dereferenceable(8) %7, i64 noundef %8)
  ret void
}

; Function Attrs: mustprogress nounwind uwtable
define linkonce_odr noundef i64 @_ZSt8distanceIPPKN5clang13CXXMethodDeclEENSt15iterator_traitsIT_E15difference_typeES6_S6_(ptr noundef %0, ptr noundef %1) #0 comdat {
  %3 = alloca ptr, align 8
  %4 = alloca ptr, align 8
  store ptr %0, ptr %3, align 8
  store ptr %1, ptr %4, align 8
  %5 = load ptr, ptr %3, align 8
  %6 = load ptr, ptr %4, align 8
  call void @_ZSt19__iterator_categoryIPPKN5clang13CXXMethodDeclEENSt15iterator_traitsIT_E17iterator_categoryERKS6_(ptr noundef nonnull align 8 dereferenceable(8) %3)
  %7 = call noundef i64 @_ZSt10__distanceIPPKN5clang13CXXMethodDeclEENSt15iterator_traitsIT_E15difference_typeES6_S6_St26random_access_iterator_tag(ptr noundef %5, ptr noundef %6)
  ret i64 %7
}

; Function Attrs: mustprogress nounwind uwtable
define internal noundef ptr @"_ZSt13__upper_boundIPPKN5clang13CXXMethodDeclES3_N9__gnu_cxx5__ops14_Val_comp_iterIZN12_GLOBAL__N_120ItaniumVTableBuilder10AddMethodsENS0_13BaseSubobjectENS0_9CharUnitsEPKNS0_13CXXRecordDeclESB_RN4llvm14SmallSetVectorISE_Lj8EEEE3$_0EEET_SL_SL_RKT0_T1_"(ptr noundef %0, ptr noundef %1, ptr noundef nonnull align 8 dereferenceable(8) %2) #0 {
  %4 = alloca %"struct.__gnu_cxx::__ops::_Val_comp_iter", align 1
  %5 = alloca ptr, align 8
  %6 = alloca ptr, align 8
  %7 = alloca ptr, align 8
  %8 = alloca i64, align 8
  %9 = alloca i64, align 8
  %10 = alloca ptr, align 8
  store ptr %0, ptr %5, align 8
  store ptr %1, ptr %6, align 8
  store ptr %2, ptr %7, align 8
  %11 = load ptr, ptr %5, align 8
  %12 = load ptr, ptr %6, align 8
  %13 = call noundef i64 @_ZSt8distanceIPPKN5clang13CXXMethodDeclEENSt15iterator_traitsIT_E15difference_typeES6_S6_(ptr noundef %11, ptr noundef %12)
  store i64 %13, ptr %8, align 8
  br label %14

14:                                               ; preds = %35, %3
  %15 = load i64, ptr %8, align 8
  %16 = icmp sgt i64 %15, 0
  br i1 %16, label %17, label %36

17:                                               ; preds = %14
  %18 = load i64, ptr %8, align 8
  %19 = ashr i64 %18, 1
  store i64 %19, ptr %9, align 8
  %20 = load ptr, ptr %5, align 8
  store ptr %20, ptr %10, align 8
  %21 = load i64, ptr %9, align 8
  call void @_ZSt7advanceIPPKN5clang13CXXMethodDeclElEvRT_T0_(ptr noundef nonnull align 8 dereferenceable(8) %10, i64 noundef %21)
  %22 = load ptr, ptr %7, align 8
  %23 = load ptr, ptr %10, align 8
  %24 = call noundef zeroext i1 @"_ZN9__gnu_cxx5__ops14_Val_comp_iterIZN12_GLOBAL__N_120ItaniumVTableBuilder10AddMethodsEN5clang13BaseSubobjectENS4_9CharUnitsEPKNS4_13CXXRecordDeclES6_RN4llvm14SmallSetVectorIS9_Lj8EEEE3$_0EclIKPKNS4_13CXXMethodDeclEPSJ_EEbRT_T0_"(ptr noundef nonnull align 1 dereferenceable(1) %4, ptr noundef nonnull align 8 dereferenceable(8) %22, ptr noundef %23)
  br i1 %24, label %25, label %27

25:                                               ; preds = %17
  %26 = load i64, ptr %9, align 8
  store i64 %26, ptr %8, align 8
  br label %35

27:                                               ; preds = %17
  %28 = load ptr, ptr %10, align 8
  store ptr %28, ptr %5, align 8
  %29 = load ptr, ptr %5, align 8
  %30 = getelementptr inbounds ptr, ptr %29, i32 1
  store ptr %30, ptr %5, align 8
  %31 = load i64, ptr %8, align 8
  %32 = load i64, ptr %9, align 8
  %33 = sub nsw i64 %31, %32
  %34 = sub nsw i64 %33, 1
  store i64 %34, ptr %8, align 8
  br label %35

35:                                               ; preds = %27, %25
  br label %14, !llvm.loop !88

36:                                               ; preds = %14
  %37 = load ptr, ptr %5, align 8
  ret ptr %37
}