; Function Attrs: mustprogress nounwind uwtable
define internal fastcc noundef ptr @"_ZSt13__upper_boundIPPKN5clang13CXXMethodDeclES3_N9__gnu_cxx5__ops14_Val_comp_iterIZN12_GLOBAL__N_120ItaniumVTableBuilder10AddMethodsENS0_13BaseSubobjectENS0_9CharUnitsEPKNS0_13CXXRecordDeclESB_RN4llvm14SmallSetVectorISE_Lj8EEEE3$_0EEET_SL_SL_RKT0_T1_"(ptr noundef %0, ptr noundef %1, ptr nocapture noundef nonnull readonly align 8 dereferenceable(8) %2) unnamed_addr #0 {
  %4 = ptrtoint ptr %1 to i64
  %5 = ptrtoint ptr %0 to i64
  %6 = sub i64 %4, %5
  %7 = ashr exact i64 %6, 3
  %8 = icmp sgt i64 %7, 0
  br i1 %8, label %_ZSt7advanceIPPKN5clang13CXXMethodDeclElEvRT_T0_.exit, label %._crit_edge

_ZSt7advanceIPPKN5clang13CXXMethodDeclElEvRT_T0_.exit: ; preds = %3, %.thread
  %.032 = phi ptr [ %46, %.thread ], [ %0, %3 ]
  %.01131 = phi i64 [ %45, %.thread ], [ %7, %3 ]
  %9 = lshr i64 %.01131, 1
  %10 = getelementptr inbounds ptr, ptr %.032, i64 %9
  %.val = load ptr, ptr %2, align 8
  %.val13 = load ptr, ptr %10, align 8
  %11 = icmp eq ptr %.val, %.val13
  br i1 %11, label %"_ZN9__gnu_cxx5__ops14_Val_comp_iterIZN12_GLOBAL__N_120ItaniumVTableBuilder10AddMethodsEN5clang13BaseSubobjectENS4_9CharUnitsEPKNS4_13CXXRecordDeclES6_RN4llvm14SmallSetVectorIS9_Lj8EEEE3$_0EclIKPKNS4_13CXXMethodDeclEPSJ_EEbRT_T0_.exit.thread", label %15

"_ZN9__gnu_cxx5__ops14_Val_comp_iterIZN12_GLOBAL__N_120ItaniumVTableBuilder10AddMethodsEN5clang13BaseSubobjectENS4_9CharUnitsEPKNS4_13CXXRecordDeclES6_RN4llvm14SmallSetVectorIS9_Lj8EEEE3$_0EclIKPKNS4_13CXXMethodDeclEPSJ_EEbRT_T0_.exit.thread": ; preds = %_ZSt7advanceIPPKN5clang13CXXMethodDeclElEvRT_T0_.exit
  %12 = getelementptr inbounds i8, ptr %10, i64 8
  %13 = xor i64 %9, -1
  %14 = add nsw i64 %.01131, %13
  br label %.thread

15:                                               ; preds = %_ZSt7advanceIPPKN5clang13CXXMethodDeclElEvRT_T0_.exit
  %16 = tail call noundef zeroext i1 @_ZNK5clang13CXXMethodDecl24isCopyAssignmentOperatorEv(ptr noundef nonnull align 8 dereferenceable(168) %.val) #26
  %17 = tail call noundef zeroext i1 @_ZNK5clang13CXXMethodDecl24isCopyAssignmentOperatorEv(ptr noundef nonnull align 8 dereferenceable(168) %.val13) #26
  %18 = xor i1 %16, %17
  br i1 %18, label %19, label %24

19:                                               ; preds = %15
  %20 = tail call noundef zeroext i1 @_ZNK5clang13CXXMethodDecl24isCopyAssignmentOperatorEv(ptr noundef nonnull align 8 dereferenceable(168) %.val) #26
  %21 = getelementptr inbounds i8, ptr %10, i64 8
  %22 = xor i64 %9, -1
  %23 = add nsw i64 %.01131, %22
  br i1 %20, label %.thread28, label %.thread

24:                                               ; preds = %15
  %25 = tail call noundef zeroext i1 @_ZNK5clang13CXXMethodDecl24isMoveAssignmentOperatorEv(ptr noundef nonnull align 8 dereferenceable(168) %.val) #26
  %26 = tail call noundef zeroext i1 @_ZNK5clang13CXXMethodDecl24isMoveAssignmentOperatorEv(ptr noundef nonnull align 8 dereferenceable(168) %.val13) #26
  %27 = xor i1 %25, %26
  br i1 %27, label %28, label %"_ZN9__gnu_cxx5__ops14_Val_comp_iterIZN12_GLOBAL__N_120ItaniumVTableBuilder10AddMethodsEN5clang13BaseSubobjectENS4_9CharUnitsEPKNS4_13CXXRecordDeclES6_RN4llvm14SmallSetVectorIS9_Lj8EEEE3$_0EclIKPKNS4_13CXXMethodDeclEPSJ_EEbRT_T0_.exit"

28:                                               ; preds = %24
  %29 = tail call noundef zeroext i1 @_ZNK5clang13CXXMethodDecl24isMoveAssignmentOperatorEv(ptr noundef nonnull align 8 dereferenceable(168) %.val) #26
  %30 = getelementptr inbounds i8, ptr %10, i64 8
  %31 = xor i64 %9, -1
  %32 = add nsw i64 %.01131, %31
  br i1 %29, label %.thread28, label %.thread

"_ZN9__gnu_cxx5__ops14_Val_comp_iterIZN12_GLOBAL__N_120ItaniumVTableBuilder10AddMethodsEN5clang13BaseSubobjectENS4_9CharUnitsEPKNS4_13CXXRecordDeclES6_RN4llvm14SmallSetVectorIS9_Lj8EEEE3$_0EclIKPKNS4_13CXXMethodDeclEPSJ_EEbRT_T0_.exit": ; preds = %24
  %33 = getelementptr inbounds nuw i8, ptr %.val, i64 28
  %34 = load i32, ptr %33, align 4
  %35 = and i32 %34, 127
  %36 = icmp eq i32 %35, 33
  %37 = getelementptr inbounds nuw i8, ptr %.val13, i64 28
  %38 = load i32, ptr %37, align 4
  %39 = and i32 %38, 127
  %40 = icmp ne i32 %39, 33
  %spec.select.i.i = and i1 %36, %40
  %cond.fr17 = freeze i1 %spec.select.i.i
  br i1 %cond.fr17, label %.thread28, label %41

41:                                               ; preds = %"_ZN9__gnu_cxx5__ops14_Val_comp_iterIZN12_GLOBAL__N_120ItaniumVTableBuilder10AddMethodsEN5clang13BaseSubobjectENS4_9CharUnitsEPKNS4_13CXXRecordDeclES6_RN4llvm14SmallSetVectorIS9_Lj8EEEE3$_0EclIKPKNS4_13CXXMethodDeclEPSJ_EEbRT_T0_.exit"
  %42 = getelementptr inbounds i8, ptr %10, i64 8
  %43 = xor i64 %9, -1
  %44 = add nsw i64 %.01131, %43
  br label %.thread

.thread28:                                        ; preds = %"_ZN9__gnu_cxx5__ops14_Val_comp_iterIZN12_GLOBAL__N_120ItaniumVTableBuilder10AddMethodsEN5clang13BaseSubobjectENS4_9CharUnitsEPKNS4_13CXXRecordDeclES6_RN4llvm14SmallSetVectorIS9_Lj8EEEE3$_0EclIKPKNS4_13CXXMethodDeclEPSJ_EEbRT_T0_.exit", %28, %19
  br label %.thread

.thread:                                          ; preds = %41, %28, %19, %"_ZN9__gnu_cxx5__ops14_Val_comp_iterIZN12_GLOBAL__N_120ItaniumVTableBuilder10AddMethodsEN5clang13BaseSubobjectENS4_9CharUnitsEPKNS4_13CXXRecordDeclES6_RN4llvm14SmallSetVectorIS9_Lj8EEEE3$_0EclIKPKNS4_13CXXMethodDeclEPSJ_EEbRT_T0_.exit.thread", %.thread28
  %45 = phi i64 [ %9, %.thread28 ], [ %44, %41 ], [ %32, %28 ], [ %23, %19 ], [ %14, %"_ZN9__gnu_cxx5__ops14_Val_comp_iterIZN12_GLOBAL__N_120ItaniumVTableBuilder10AddMethodsEN5clang13BaseSubobjectENS4_9CharUnitsEPKNS4_13CXXRecordDeclES6_RN4llvm14SmallSetVectorIS9_Lj8EEEE3$_0EclIKPKNS4_13CXXMethodDeclEPSJ_EEbRT_T0_.exit.thread" ]
  %46 = phi ptr [ %.032, %.thread28 ], [ %42, %41 ], [ %30, %28 ], [ %21, %19 ], [ %12, %"_ZN9__gnu_cxx5__ops14_Val_comp_iterIZN12_GLOBAL__N_120ItaniumVTableBuilder10AddMethodsEN5clang13BaseSubobjectENS4_9CharUnitsEPKNS4_13CXXRecordDeclES6_RN4llvm14SmallSetVectorIS9_Lj8EEEE3$_0EclIKPKNS4_13CXXMethodDeclEPSJ_EEbRT_T0_.exit.thread" ]
  %47 = icmp sgt i64 %45, 0
  br i1 %47, label %_ZSt7advanceIPPKN5clang13CXXMethodDeclElEvRT_T0_.exit, label %._crit_edge, !llvm.loop !412

._crit_edge:                                      ; preds = %.thread, %3
  %.0.lcssa = phi ptr [ %0, %3 ], [ %46, %.thread ]
  ret ptr %.0.lcssa
}